; Function Attrs: mustprogress nofree norecurse nosync nounwind memory(read, argmem: readwrite, inaccessiblemem: none) uwtable
define void @_ZNK4YAML6detail9node_data16compute_seq_sizeEv(ptr nocapture noundef nonnull align 8 dereferenceable(176) %this) local_unnamed_addr #9 align 2 {
entry:
  %m_seqSize = getelementptr inbounds i8, ptr %this, i64 120
  %m_sequence = getelementptr inbounds i8, ptr %this, i64 96
  %_M_finish.i = getelementptr inbounds i8, ptr %this, i64 104
  %0 = load ptr, ptr %_M_finish.i, align 8
  %1 = load ptr, ptr %m_sequence, align 8
  %sub.ptr.lhs.cast.i = ptrtoint ptr %0 to i64
  %sub.ptr.rhs.cast.i = ptrtoint ptr %1 to i64
  %sub.ptr.sub.i = sub i64 %sub.ptr.lhs.cast.i, %sub.ptr.rhs.cast.i
  %sub.ptr.div.i = ashr exact i64 %sub.ptr.sub.i, 3
  %m_seqSize.promoted = load i64, ptr %m_seqSize, align 8
  %cmp1 = icmp ult i64 %m_seqSize.promoted, %sub.ptr.div.i
  br i1 %cmp1, label %land.rhs, label %while.end

land.rhs:                                         ; preds = %entry, %while.body
  %2 = phi i64 [ %inc, %while.body ], [ %m_seqSize.promoted, %entry ]
  %add.ptr.i = getelementptr inbounds ptr, ptr %1, i64 %2
  %3 = load ptr, ptr %add.ptr.i, align 8
  %4 = load ptr, ptr %3, align 8
  %5 = load ptr, ptr %4, align 8
  %6 = load i8, ptr %5, align 8
  %7 = and i8 %6, 1
  %tobool.i.i.i.not = icmp eq i8 %7, 0
  br i1 %tobool.i.i.i.not, label %while.end, label %while.body

while.body:                                       ; preds = %land.rhs
  %inc = add i64 %2, 1
  store i64 %inc, ptr %m_seqSize, align 8
  %exitcond.not = icmp eq i64 %inc, %sub.ptr.div.i
  br i1 %exitcond.not, label %while.end, label %land.rhs, !llvm.loop !7

while.end:                                        ; preds = %land.rhs, %while.body, %entry
  ret void
}